target datalayout = "e-m:e-p270:32:32-p271:32:32-p272:64:64-i64:64-i128:128-f80:128-n8:16:32:64-S128"
target triple = "x86_64-pc-linux-gnu"

; Function Attrs: nounwind uwtable
define void @vec_set_scalar(ptr noundef %0, double noundef %1, i64 noundef %2) #0 {
  %4 = alloca ptr, align 8
  %5 = alloca double, align 8
  %6 = alloca i64, align 8
  %7 = alloca i64, align 8
  store ptr %0, ptr %4, align 8, !tbaa !3
  store double %1, ptr %5, align 8, !tbaa !8
  store i64 %2, ptr %6, align 8, !tbaa !10
  call void @llvm.lifetime.start.p0(i64 8, ptr %7) #3
  store i64 0, ptr %7, align 8, !tbaa !10
  br label %8

8:                                                ; preds = %17, %3
  %9 = load i64, ptr %7, align 8, !tbaa !10
  %10 = load i64, ptr %6, align 8, !tbaa !10
  %11 = icmp slt i64 %9, %10
  br i1 %11, label %12, label %20

12:                                               ; preds = %8
  %13 = load double, ptr %5, align 8, !tbaa !8
  %14 = load ptr, ptr %4, align 8, !tbaa !3
  %15 = load i64, ptr %7, align 8, !tbaa !10
  %16 = getelementptr inbounds double, ptr %14, i64 %15
  store double %13, ptr %16, align 8, !tbaa !8
  br label %17

17:                                               ; preds = %12
  %18 = load i64, ptr %7, align 8, !tbaa !10
  %19 = add nsw i64 %18, 1
  store i64 %19, ptr %7, align 8, !tbaa !10
  br label %8, !llvm.loop !12

20:                                               ; preds = %8
  call void @llvm.lifetime.end.p0(i64 8, ptr %7) #3
  ret void
}