; Function Attrs: nofree norecurse nosync nounwind memory(argmem: write) uwtable
define void @vec_set_scalar(ptr noundef writeonly captures(none) %0, double noundef %1, i64 noundef %2) local_unnamed_addr #0 {
  %4 = icmp sgt i64 %2, 0
  br i1 %4, label %.lr.ph, label %._crit_edge

.lr.ph:                                           ; preds = %3, %.lr.ph
  %.05 = phi i64 [ %6, %.lr.ph ], [ 0, %3 ]
  %5 = getelementptr inbounds nuw double, ptr %0, i64 %.05
  store double %1, ptr %5, align 8, !tbaa !3
  %6 = add nuw nsw i64 %.05, 1
  %exitcond.not = icmp eq i64 %6, %2
  br i1 %exitcond.not, label %._crit_edge, label %.lr.ph, !llvm.loop !7

._crit_edge:                                      ; preds = %.lr.ph, %3
  ret void
}